target datalayout = "e-m:e-p270:32:32-p271:32:32-p272:64:64-i64:64-i128:128-f80:128-n8:16:32:64-S128"
target triple = "x86_64-pc-linux-gnu"

%struct.MPVEncContext = type { %struct.MpegEncContext, %struct.PutBitContext, i32, i32, ptr, i32, i32, i32, i32, i32, i32, i32, i32, ptr, ptr, %struct.FDCTDSPContext, %struct.MpegvideoEncDSPContext, %struct.PixblockDSPContext, %struct.MotionEstContext, i32, i32, ptr, ptr, ptr, ptr, ptr, ptr, [2 x [2 x [2 x ptr]]], [2 x ptr], [2 x [2 x ptr]], ptr, ptr, ptr, ptr, [3 x i64], i32, i32, i32, i32, i32, ptr, ptr, ptr, ptr, ptr, ptr, ptr, [12 x i32], ptr, ptr, ptr, ptr, ptr, ptr, ptr, ptr, [2 x i32], ptr, i32, i32, i32, i32, i32, i32, i32, i32, i32, i32, ptr, ptr, i32, i32, %struct.PutBitContext, %struct.PutBitContext, i32, i32, i32, i32, ptr, ptr, ptr, [2 x ptr], [2 x ptr], [2 x ptr], [2 x ptr], ptr, i32 }
%struct.MpegEncContext = type { ptr, i32, i32, i32, [12 x i32], i32, %struct.ScanTable, %struct.ScanTable, [64 x i8], [64 x i8], ptr, ptr, i32, i32, i32, i32, i32, i32, i32, i32, i32, i32, i32, i32, i32, i32, i32, i32, i32, i32, i32, i32, i64, i64, ptr, %struct.BufferPoolContext, i32, i32, %union.anon, i32, %struct.MPVWorkPicture, %struct.MPVWorkPicture, %struct.MPVWorkPicture, i32, [3 x i32], ptr, [3 x ptr], ptr, ptr, ptr, ptr, ptr, ptr, [3 x ptr], i32, ptr, ptr, ptr, ptr, %struct.ScratchpadContext, i32, i32, i32, i32, i32, i32, %struct.BlockDSPContext, %struct.H264ChromaContext, %struct.HpelDSPContext, %struct.IDCTDSPContext, %struct.QpelDSPContext, %struct.VideoDSPContext, %struct.H263DSPContext, ptr, [2 x [2 x ptr]], i32, i32, [2 x [4 x [2 x i32]]], [2 x [2 x i32]], [2 x [2 x [2 x i32]]], [2 x [64 x i16]], i32, i32, i32, i32, i32, [6 x i32], [6 x i32], [3 x ptr], ptr, [64 x i16], [64 x i16], [64 x i16], [64 x i16], i32, i32, %struct.GetBitContext, i32, i32, i32, i32, i32, i32, i32, i32, i32, i32, i32, i32, i32, i32, i32, i64, i64, i16, i16, i16, i16, i32, i32, i32, i32, i32, i32, i32, i32, i32, [3 x i32], i32, i32, i32, i32, i32, i32, %struct.GetBitContext, i32, [2 x [2 x i32]], i32, i32, i32, i32, i32, i32, i32, i32, i32, i32, i32, i32, i32, i32, [2 x i32], i32, i32, ptr, ptr, ptr, ptr, ptr, i32, i32, %struct.ERContext }
%struct.ScanTable = type { ptr, [64 x i8], [64 x i8] }
%struct.BufferPoolContext = type { ptr, ptr, ptr, ptr, ptr, i32, i32, i32 }
%union.anon = type { [32 x ptr] }
%struct.MPVWorkPicture = type { [3 x ptr], [3 x i64], ptr, ptr, [2 x ptr], ptr, ptr, [2 x ptr], i32 }
%struct.ScratchpadContext = type { ptr, ptr, %union.anon.0, i32 }
%union.anon.0 = type { ptr }
%struct.BlockDSPContext = type { ptr, ptr, [2 x ptr] }
%struct.H264ChromaContext = type { [4 x ptr], [4 x ptr] }
%struct.HpelDSPContext = type { [4 x [4 x ptr]], [4 x [4 x ptr]], [4 x [4 x ptr]], [4 x ptr] }
%struct.IDCTDSPContext = type { ptr, ptr, ptr, ptr, ptr, ptr, [64 x i8], i32, i32 }
%struct.QpelDSPContext = type { [2 x [16 x ptr]], [2 x [16 x ptr]], [2 x [16 x ptr]] }
%struct.VideoDSPContext = type { ptr, ptr }
%struct.H263DSPContext = type { ptr, ptr }
%struct.GetBitContext = type { ptr, ptr, i32, i32, i32 }
%struct.ERContext = type { ptr, ptr, i32, ptr, i32, i32, i32, i64, i64, i32, i32, ptr, ptr, [3 x ptr], ptr, ptr, [2 x [4 x [2 x i32]]], %struct.ERPicture, %struct.ERPicture, %struct.ERPicture, [2 x ptr], [2 x ptr], i16, i16, i32, i32, ptr, ptr }
%struct.ERPicture = type { ptr, ptr, ptr, [2 x ptr], [2 x ptr], ptr, i32 }
%struct.FDCTDSPContext = type { ptr, ptr }
%struct.MpegvideoEncDSPContext = type { ptr, ptr, ptr, ptr, [4 x ptr], ptr }
%struct.PixblockDSPContext = type { ptr, ptr, ptr, ptr }
%struct.MotionEstContext = type { ptr, i32, i32, [4 x [2 x i32]], [4 x [2 x i32]], ptr, ptr, i32, i32, i32, i32, i32, i32, i32, i32, i32, i32, i32, i32, i32, i32, i32, i32, [4 x [4 x ptr]], [4 x [4 x ptr]], i32, i32, i64, i64, i32, [6 x ptr], [6 x ptr], [6 x ptr], [6 x ptr], [2 x [4 x ptr]], ptr, ptr, ptr, ptr, ptr, ptr, ptr, ptr, [64 x i32], [64 x i32] }
%struct.PutBitContext = type { i32, i32, ptr, ptr, ptr }
%struct.AVCodecContext = type { ptr, i32, i32, ptr, i32, i32, ptr, ptr, ptr, i64, i32, i32, ptr, i32, %struct.AVRational, %struct.AVRational, %struct.AVRational, i32, i32, i32, i32, i32, %struct.AVRational, i32, i32, i32, i32, i32, i32, i32, i32, i32, i32, i32, ptr, ptr, i32, float, float, float, float, float, float, float, float, float, i32, i32, i32, i32, i32, i32, i32, i32, i32, i32, i32, i32, ptr, ptr, ptr, i32, i32, i32, i32, i32, i32, i32, i32, i32, i32, %struct.AVChannelLayout, i32, i32, i32, i32, i32, i32, i32, i32, ptr, i32, i32, i32, float, float, i32, i32, i32, i32, i32, ptr, i64, i64, float, float, i32, i32, ptr, ptr, i32, i32, i32, i32, i32, ptr, ptr, ptr, ptr, i32, i32, [8 x i64], i32, i32, i32, i32, i32, i32, i32, ptr, ptr, i32, i32, i32, i32, i32, i32, i32, i32, i32, i32, ptr, ptr, i32, i32, ptr, ptr, ptr, ptr, i32, i32, i64, i32, i32, i64, ptr, i64, ptr, i32, ptr, i32 }
%struct.AVRational = type { i32, i32 }
%struct.AVChannelLayout = type { i32, i32, %union.anon.1, ptr }
%union.anon.1 = type { i64 }

; Function Attrs: nounwind uwtable
define internal i32 @nsse8_c(ptr noundef %0, ptr noundef %1, ptr noundef %2, i64 noundef %3, i32 noundef %4) #2 {
  %6 = alloca i32, align 4
  %7 = alloca ptr, align 8
  %8 = alloca ptr, align 8
  %9 = alloca ptr, align 8
  %10 = alloca i64, align 8
  %11 = alloca i32, align 4
  %12 = alloca i32, align 4
  %13 = alloca i32, align 4
  %14 = alloca i32, align 4
  %15 = alloca i32, align 4
  %16 = alloca i32, align 4
  store ptr %0, ptr %7, align 8, !tbaa !22
  store ptr %1, ptr %8, align 8, !tbaa !24
  store ptr %2, ptr %9, align 8, !tbaa !24
  store i64 %3, ptr %10, align 8, !tbaa !26
  store i32 %4, ptr %11, align 4, !tbaa !11
  call void @llvm.lifetime.start.p0(i64 4, ptr %12) #9
  store i32 0, ptr %12, align 4, !tbaa !11
  call void @llvm.lifetime.start.p0(i64 4, ptr %13) #9
  store i32 0, ptr %13, align 4, !tbaa !11
  call void @llvm.lifetime.start.p0(i64 4, ptr %14) #9
  call void @llvm.lifetime.start.p0(i64 4, ptr %15) #9
  store i32 0, ptr %15, align 4, !tbaa !11
  br label %17

17:                                               ; preds = %292, %5
  %18 = load i32, ptr %15, align 4, !tbaa !11
  %19 = load i32, ptr %11, align 4, !tbaa !11
  %20 = icmp slt i32 %18, %19
  br i1 %20, label %21, label %295

21:                                               ; preds = %17
  store i32 0, ptr %14, align 4, !tbaa !11
  br label %22

22:                                               ; preds = %55, %21
  %23 = load i32, ptr %14, align 4, !tbaa !11
  %24 = icmp slt i32 %23, 8
  br i1 %24, label %25, label %58

25:                                               ; preds = %22
  %26 = load ptr, ptr %8, align 8, !tbaa !24
  %27 = load i32, ptr %14, align 4, !tbaa !11
  %28 = sext i32 %27 to i64
  %29 = getelementptr inbounds i8, ptr %26, i64 %28
  %30 = load i8, ptr %29, align 1, !tbaa !36
  %31 = zext i8 %30 to i32
  %32 = load ptr, ptr %9, align 8, !tbaa !24
  %33 = load i32, ptr %14, align 4, !tbaa !11
  %34 = sext i32 %33 to i64
  %35 = getelementptr inbounds i8, ptr %32, i64 %34
  %36 = load i8, ptr %35, align 1, !tbaa !36
  %37 = zext i8 %36 to i32
  %38 = sub nsw i32 %31, %37
  %39 = load ptr, ptr %8, align 8, !tbaa !24
  %40 = load i32, ptr %14, align 4, !tbaa !11
  %41 = sext i32 %40 to i64
  %42 = getelementptr inbounds i8, ptr %39, i64 %41
  %43 = load i8, ptr %42, align 1, !tbaa !36
  %44 = zext i8 %43 to i32
  %45 = load ptr, ptr %9, align 8, !tbaa !24
  %46 = load i32, ptr %14, align 4, !tbaa !11
  %47 = sext i32 %46 to i64
  %48 = getelementptr inbounds i8, ptr %45, i64 %47
  %49 = load i8, ptr %48, align 1, !tbaa !36
  %50 = zext i8 %49 to i32
  %51 = sub nsw i32 %44, %50
  %52 = mul nsw i32 %38, %51
  %53 = load i32, ptr %12, align 4, !tbaa !11
  %54 = add nsw i32 %53, %52
  store i32 %54, ptr %12, align 4, !tbaa !11
  br label %55

55:                                               ; preds = %25
  %56 = load i32, ptr %14, align 4, !tbaa !11
  %57 = add nsw i32 %56, 1
  store i32 %57, ptr %14, align 4, !tbaa !11
  br label %22, !llvm.loop !136

58:                                               ; preds = %22
  %59 = load i32, ptr %15, align 4, !tbaa !11
  %60 = add nsw i32 %59, 1
  %61 = load i32, ptr %11, align 4, !tbaa !11
  %62 = icmp slt i32 %60, %61
  br i1 %62, label %63, label %285

63:                                               ; preds = %58
  store i32 0, ptr %14, align 4, !tbaa !11
  br label %64

64:                                               ; preds = %281, %63
  %65 = load i32, ptr %14, align 4, !tbaa !11
  %66 = icmp slt i32 %65, 7
  br i1 %66, label %67, label %284

67:                                               ; preds = %64
  %68 = load ptr, ptr %8, align 8, !tbaa !24
  %69 = load i32, ptr %14, align 4, !tbaa !11
  %70 = sext i32 %69 to i64
  %71 = getelementptr inbounds i8, ptr %68, i64 %70
  %72 = load i8, ptr %71, align 1, !tbaa !36
  %73 = zext i8 %72 to i32
  %74 = load ptr, ptr %8, align 8, !tbaa !24
  %75 = load i32, ptr %14, align 4, !tbaa !11
  %76 = sext i32 %75 to i64
  %77 = load i64, ptr %10, align 8, !tbaa !26
  %78 = add nsw i64 %76, %77
  %79 = getelementptr inbounds i8, ptr %74, i64 %78
  %80 = load i8, ptr %79, align 1, !tbaa !36
  %81 = zext i8 %80 to i32
  %82 = sub nsw i32 %73, %81
  %83 = load ptr, ptr %8, align 8, !tbaa !24
  %84 = load i32, ptr %14, align 4, !tbaa !11
  %85 = add nsw i32 %84, 1
  %86 = sext i32 %85 to i64
  %87 = getelementptr inbounds i8, ptr %83, i64 %86
  %88 = load i8, ptr %87, align 1, !tbaa !36
  %89 = zext i8 %88 to i32
  %90 = sub nsw i32 %82, %89
  %91 = load ptr, ptr %8, align 8, !tbaa !24
  %92 = load i32, ptr %14, align 4, !tbaa !11
  %93 = sext i32 %92 to i64
  %94 = load i64, ptr %10, align 8, !tbaa !26
  %95 = add nsw i64 %93, %94
  %96 = add nsw i64 %95, 1
  %97 = getelementptr inbounds i8, ptr %91, i64 %96
  %98 = load i8, ptr %97, align 1, !tbaa !36
  %99 = zext i8 %98 to i32
  %100 = add nsw i32 %90, %99
  %101 = icmp sge i32 %100, 0
  br i1 %101, label %102, label %136

102:                                              ; preds = %67
  %103 = load ptr, ptr %8, align 8, !tbaa !24
  %104 = load i32, ptr %14, align 4, !tbaa !11
  %105 = sext i32 %104 to i64
  %106 = getelementptr inbounds i8, ptr %103, i64 %105
  %107 = load i8, ptr %106, align 1, !tbaa !36
  %108 = zext i8 %107 to i32
  %109 = load ptr, ptr %8, align 8, !tbaa !24
  %110 = load i32, ptr %14, align 4, !tbaa !11
  %111 = sext i32 %110 to i64
  %112 = load i64, ptr %10, align 8, !tbaa !26
  %113 = add nsw i64 %111, %112
  %114 = getelementptr inbounds i8, ptr %109, i64 %113
  %115 = load i8, ptr %114, align 1, !tbaa !36
  %116 = zext i8 %115 to i32
  %117 = sub nsw i32 %108, %116
  %118 = load ptr, ptr %8, align 8, !tbaa !24
  %119 = load i32, ptr %14, align 4, !tbaa !11
  %120 = add nsw i32 %119, 1
  %121 = sext i32 %120 to i64
  %122 = getelementptr inbounds i8, ptr %118, i64 %121
  %123 = load i8, ptr %122, align 1, !tbaa !36
  %124 = zext i8 %123 to i32
  %125 = sub nsw i32 %117, %124
  %126 = load ptr, ptr %8, align 8, !tbaa !24
  %127 = load i32, ptr %14, align 4, !tbaa !11
  %128 = sext i32 %127 to i64
  %129 = load i64, ptr %10, align 8, !tbaa !26
  %130 = add nsw i64 %128, %129
  %131 = add nsw i64 %130, 1
  %132 = getelementptr inbounds i8, ptr %126, i64 %131
  %133 = load i8, ptr %132, align 1, !tbaa !36
  %134 = zext i8 %133 to i32
  %135 = add nsw i32 %125, %134
  br label %171

136:                                              ; preds = %67
  %137 = load ptr, ptr %8, align 8, !tbaa !24
  %138 = load i32, ptr %14, align 4, !tbaa !11
  %139 = sext i32 %138 to i64
  %140 = getelementptr inbounds i8, ptr %137, i64 %139
  %141 = load i8, ptr %140, align 1, !tbaa !36
  %142 = zext i8 %141 to i32
  %143 = load ptr, ptr %8, align 8, !tbaa !24
  %144 = load i32, ptr %14, align 4, !tbaa !11
  %145 = sext i32 %144 to i64
  %146 = load i64, ptr %10, align 8, !tbaa !26
  %147 = add nsw i64 %145, %146
  %148 = getelementptr inbounds i8, ptr %143, i64 %147
  %149 = load i8, ptr %148, align 1, !tbaa !36
  %150 = zext i8 %149 to i32
  %151 = sub nsw i32 %142, %150
  %152 = load ptr, ptr %8, align 8, !tbaa !24
  %153 = load i32, ptr %14, align 4, !tbaa !11
  %154 = add nsw i32 %153, 1
  %155 = sext i32 %154 to i64
  %156 = getelementptr inbounds i8, ptr %152, i64 %155
  %157 = load i8, ptr %156, align 1, !tbaa !36
  %158 = zext i8 %157 to i32
  %159 = sub nsw i32 %151, %158
  %160 = load ptr, ptr %8, align 8, !tbaa !24
  %161 = load i32, ptr %14, align 4, !tbaa !11
  %162 = sext i32 %161 to i64
  %163 = load i64, ptr %10, align 8, !tbaa !26
  %164 = add nsw i64 %162, %163
  %165 = add nsw i64 %164, 1
  %166 = getelementptr inbounds i8, ptr %160, i64 %165
  %167 = load i8, ptr %166, align 1, !tbaa !36
  %168 = zext i8 %167 to i32
  %169 = add nsw i32 %159, %168
  %170 = sub nsw i32 0, %169
  br label %171

171:                                              ; preds = %136, %102
  %172 = phi i32 [ %135, %102 ], [ %170, %136 ]
  %173 = load ptr, ptr %9, align 8, !tbaa !24
  %174 = load i32, ptr %14, align 4, !tbaa !11
  %175 = sext i32 %174 to i64
  %176 = getelementptr inbounds i8, ptr %173, i64 %175
  %177 = load i8, ptr %176, align 1, !tbaa !36
  %178 = zext i8 %177 to i32
  %179 = load ptr, ptr %9, align 8, !tbaa !24
  %180 = load i32, ptr %14, align 4, !tbaa !11
  %181 = sext i32 %180 to i64
  %182 = load i64, ptr %10, align 8, !tbaa !26
  %183 = add nsw i64 %181, %182
  %184 = getelementptr inbounds i8, ptr %179, i64 %183
  %185 = load i8, ptr %184, align 1, !tbaa !36
  %186 = zext i8 %185 to i32
  %187 = sub nsw i32 %178, %186
  %188 = load ptr, ptr %9, align 8, !tbaa !24
  %189 = load i32, ptr %14, align 4, !tbaa !11
  %190 = add nsw i32 %189, 1
  %191 = sext i32 %190 to i64
  %192 = getelementptr inbounds i8, ptr %188, i64 %191
  %193 = load i8, ptr %192, align 1, !tbaa !36
  %194 = zext i8 %193 to i32
  %195 = sub nsw i32 %187, %194
  %196 = load ptr, ptr %9, align 8, !tbaa !24
  %197 = load i32, ptr %14, align 4, !tbaa !11
  %198 = sext i32 %197 to i64
  %199 = load i64, ptr %10, align 8, !tbaa !26
  %200 = add nsw i64 %198, %199
  %201 = add nsw i64 %200, 1
  %202 = getelementptr inbounds i8, ptr %196, i64 %201
  %203 = load i8, ptr %202, align 1, !tbaa !36
  %204 = zext i8 %203 to i32
  %205 = add nsw i32 %195, %204
  %206 = icmp sge i32 %205, 0
  br i1 %206, label %207, label %241

207:                                              ; preds = %171
  %208 = load ptr, ptr %9, align 8, !tbaa !24
  %209 = load i32, ptr %14, align 4, !tbaa !11
  %210 = sext i32 %209 to i64
  %211 = getelementptr inbounds i8, ptr %208, i64 %210
  %212 = load i8, ptr %211, align 1, !tbaa !36
  %213 = zext i8 %212 to i32
  %214 = load ptr, ptr %9, align 8, !tbaa !24
  %215 = load i32, ptr %14, align 4, !tbaa !11
  %216 = sext i32 %215 to i64
  %217 = load i64, ptr %10, align 8, !tbaa !26
  %218 = add nsw i64 %216, %217
  %219 = getelementptr inbounds i8, ptr %214, i64 %218
  %220 = load i8, ptr %219, align 1, !tbaa !36
  %221 = zext i8 %220 to i32
  %222 = sub nsw i32 %213, %221
  %223 = load ptr, ptr %9, align 8, !tbaa !24
  %224 = load i32, ptr %14, align 4, !tbaa !11
  %225 = add nsw i32 %224, 1
  %226 = sext i32 %225 to i64
  %227 = getelementptr inbounds i8, ptr %223, i64 %226
  %228 = load i8, ptr %227, align 1, !tbaa !36
  %229 = zext i8 %228 to i32
  %230 = sub nsw i32 %222, %229
  %231 = load ptr, ptr %9, align 8, !tbaa !24
  %232 = load i32, ptr %14, align 4, !tbaa !11
  %233 = sext i32 %232 to i64
  %234 = load i64, ptr %10, align 8, !tbaa !26
  %235 = add nsw i64 %233, %234
  %236 = add nsw i64 %235, 1
  %237 = getelementptr inbounds i8, ptr %231, i64 %236
  %238 = load i8, ptr %237, align 1, !tbaa !36
  %239 = zext i8 %238 to i32
  %240 = add nsw i32 %230, %239
  br label %276

241:                                              ; preds = %171
  %242 = load ptr, ptr %9, align 8, !tbaa !24
  %243 = load i32, ptr %14, align 4, !tbaa !11
  %244 = sext i32 %243 to i64
  %245 = getelementptr inbounds i8, ptr %242, i64 %244
  %246 = load i8, ptr %245, align 1, !tbaa !36
  %247 = zext i8 %246 to i32
  %248 = load ptr, ptr %9, align 8, !tbaa !24
  %249 = load i32, ptr %14, align 4, !tbaa !11
  %250 = sext i32 %249 to i64
  %251 = load i64, ptr %10, align 8, !tbaa !26
  %252 = add nsw i64 %250, %251
  %253 = getelementptr inbounds i8, ptr %248, i64 %252
  %254 = load i8, ptr %253, align 1, !tbaa !36
  %255 = zext i8 %254 to i32
  %256 = sub nsw i32 %247, %255
  %257 = load ptr, ptr %9, align 8, !tbaa !24
  %258 = load i32, ptr %14, align 4, !tbaa !11
  %259 = add nsw i32 %258, 1
  %260 = sext i32 %259 to i64
  %261 = getelementptr inbounds i8, ptr %257, i64 %260
  %262 = load i8, ptr %261, align 1, !tbaa !36
  %263 = zext i8 %262 to i32
  %264 = sub nsw i32 %256, %263
  %265 = load ptr, ptr %9, align 8, !tbaa !24
  %266 = load i32, ptr %14, align 4, !tbaa !11
  %267 = sext i32 %266 to i64
  %268 = load i64, ptr %10, align 8, !tbaa !26
  %269 = add nsw i64 %267, %268
  %270 = add nsw i64 %269, 1
  %271 = getelementptr inbounds i8, ptr %265, i64 %270
  %272 = load i8, ptr %271, align 1, !tbaa !36
  %273 = zext i8 %272 to i32
  %274 = add nsw i32 %264, %273
  %275 = sub nsw i32 0, %274
  br label %276

276:                                              ; preds = %241, %207
  %277 = phi i32 [ %240, %207 ], [ %275, %241 ]
  %278 = sub nsw i32 %172, %277
  %279 = load i32, ptr %13, align 4, !tbaa !11
  %280 = add nsw i32 %279, %278
  store i32 %280, ptr %13, align 4, !tbaa !11
  br label %281

281:                                              ; preds = %276
  %282 = load i32, ptr %14, align 4, !tbaa !11
  %283 = add nsw i32 %282, 1
  store i32 %283, ptr %14, align 4, !tbaa !11
  br label %64, !llvm.loop !137

284:                                              ; preds = %64
  br label %285

285:                                              ; preds = %284, %58
  %286 = load i64, ptr %10, align 8, !tbaa !26
  %287 = load ptr, ptr %8, align 8, !tbaa !24
  %288 = getelementptr inbounds i8, ptr %287, i64 %286
  store ptr %288, ptr %8, align 8, !tbaa !24
  %289 = load i64, ptr %10, align 8, !tbaa !26
  %290 = load ptr, ptr %9, align 8, !tbaa !24
  %291 = getelementptr inbounds i8, ptr %290, i64 %289
  store ptr %291, ptr %9, align 8, !tbaa !24
  br label %292

292:                                              ; preds = %285
  %293 = load i32, ptr %15, align 4, !tbaa !11
  %294 = add nsw i32 %293, 1
  store i32 %294, ptr %15, align 4, !tbaa !11
  br label %17, !llvm.loop !138

295:                                              ; preds = %17
  %296 = load ptr, ptr %7, align 8, !tbaa !22
  %297 = icmp ne ptr %296, null
  br i1 %297, label %298, label %317

298:                                              ; preds = %295
  %299 = load i32, ptr %12, align 4, !tbaa !11
  %300 = load i32, ptr %13, align 4, !tbaa !11
  %301 = icmp sge i32 %300, 0
  br i1 %301, label %302, label %304

302:                                              ; preds = %298
  %303 = load i32, ptr %13, align 4, !tbaa !11
  br label %307

304:                                              ; preds = %298
  %305 = load i32, ptr %13, align 4, !tbaa !11
  %306 = sub nsw i32 0, %305
  br label %307

307:                                              ; preds = %304, %302
  %308 = phi i32 [ %303, %302 ], [ %306, %304 ]
  %309 = load ptr, ptr %7, align 8, !tbaa !22
  %310 = getelementptr inbounds nuw %struct.MPVEncContext, ptr %309, i32 0, i32 0
  %311 = getelementptr inbounds nuw %struct.MpegEncContext, ptr %310, i32 0, i32 10
  %312 = load ptr, ptr %311, align 8, !tbaa !122
  %313 = getelementptr inbounds nuw %struct.AVCodecContext, ptr %312, i32 0, i32 46
  %314 = load i32, ptr %313, align 8, !tbaa !123
  %315 = mul nsw i32 %308, %314
  %316 = add nsw i32 %299, %315
  store i32 %316, ptr %6, align 4
  store i32 1, ptr %16, align 4
  br label %330

317:                                              ; preds = %295
  %318 = load i32, ptr %12, align 4, !tbaa !11
  %319 = load i32, ptr %13, align 4, !tbaa !11
  %320 = icmp sge i32 %319, 0
  br i1 %320, label %321, label %323

321:                                              ; preds = %317
  %322 = load i32, ptr %13, align 4, !tbaa !11
  br label %326

323:                                              ; preds = %317
  %324 = load i32, ptr %13, align 4, !tbaa !11
  %325 = sub nsw i32 0, %324
  br label %326

326:                                              ; preds = %323, %321
  %327 = phi i32 [ %322, %321 ], [ %325, %323 ]
  %328 = mul nsw i32 %327, 8
  %329 = add nsw i32 %318, %328
  store i32 %329, ptr %6, align 4
  store i32 1, ptr %16, align 4
  br label %330

330:                                              ; preds = %326, %307
  call void @llvm.lifetime.end.p0(i64 4, ptr %15) #9
  call void @llvm.lifetime.end.p0(i64 4, ptr %14) #9
  call void @llvm.lifetime.end.p0(i64 4, ptr %13) #9
  call void @llvm.lifetime.end.p0(i64 4, ptr %12) #9
  %331 = load i32, ptr %6, align 4
  ret i32 %331
}